target datalayout = "e-m:e-p270:32:32-p271:32:32-p272:64:64-i64:64-i128:128-f80:128-n8:16:32:64-S128"
target triple = "x86_64-pc-linux-gnu"

%"struct.rocksdb::ThreadStatusData" = type <{ %"struct.std::atomic", [7 x i8], %"struct.std::atomic.0", %"struct.std::atomic.2", [4 x i8], %"struct.std::atomic.3", %"struct.std::atomic.5", [4 x i8], %"struct.std::atomic.0", %"struct.std::atomic.6", [4 x i8], [6 x %"struct.std::atomic.0"], %"struct.std::atomic.7", [4 x i8] }>
%"struct.std::atomic" = type { %"struct.std::__atomic_base" }
%"struct.std::__atomic_base" = type { i8 }
%"struct.std::atomic.2" = type { i32 }
%"struct.std::atomic.3" = type { %"struct.std::__atomic_base.4" }
%"struct.std::__atomic_base.4" = type { ptr }
%"struct.std::atomic.5" = type { i32 }
%"struct.std::atomic.0" = type { %"struct.std::__atomic_base.1" }
%"struct.std::__atomic_base.1" = type { i64 }
%"struct.std::atomic.6" = type { i32 }
%"struct.std::atomic.7" = type { i32 }

@_ZN7rocksdb19ThreadStatusUpdater19thread_status_data_E = thread_local global ptr null, align 8

; Function Attrs: mustprogress nounwind uwtable
define linkonce_odr noundef i32 @_ZStanSt12memory_orderSt23__memory_order_modifier(i32 noundef %0, i32 noundef %1) #2 comdat {
  %3 = alloca i32, align 4
  %4 = alloca i32, align 4
  store i32 %0, ptr %3, align 4, !tbaa !68
  store i32 %1, ptr %4, align 4, !tbaa !148
  %5 = load i32, ptr %3, align 4, !tbaa !68
  %6 = load i32, ptr %4, align 4, !tbaa !148
  %7 = and i32 %5, %6
  ret i32 %7
}

; Function Attrs: alwaysinline mustprogress nounwind uwtable
define linkonce_odr noundef zeroext i1 @_ZNKSt13__atomic_baseIbE4loadESt12memory_order(ptr noundef nonnull align 1 dereferenceable(1) %0, i32 noundef %1) #10 comdat align 2 {
  %3 = alloca ptr, align 8
  %4 = alloca i32, align 4
  %5 = alloca i32, align 4
  %6 = alloca i8, align 1
  store ptr %0, ptr %3, align 8, !tbaa !146
  store i32 %1, ptr %4, align 4, !tbaa !68
  %7 = load ptr, ptr %3, align 8
  call void @llvm.lifetime.start.p0(i64 4, ptr %5) #5
  %8 = load i32, ptr %4, align 4, !tbaa !68
  %9 = call noundef i32 @_ZStanSt12memory_orderSt23__memory_order_modifier(i32 noundef %8, i32 noundef 65535)
  store i32 %9, ptr %5, align 4, !tbaa !68
  br label %10

10:                                               ; preds = %2
  br label %11

11:                                               ; preds = %10
  br label %12

12:                                               ; preds = %11
  br label %13

13:                                               ; preds = %12
  br label %14

14:                                               ; preds = %13
  br label %15

15:                                               ; preds = %14
  %16 = getelementptr inbounds nuw %"struct.std::__atomic_base", ptr %7, i32 0, i32 0
  %17 = load i32, ptr %4, align 4, !tbaa !68
  switch i32 %17, label %18 [
    i32 1, label %20
    i32 2, label %20
    i32 5, label %22
  ]

18:                                               ; preds = %15
  %19 = load atomic i8, ptr %16 monotonic, align 1
  store i8 %19, ptr %6, align 1
  br label %24

20:                                               ; preds = %15, %15
  %21 = load atomic i8, ptr %16 acquire, align 1
  store i8 %21, ptr %6, align 1
  br label %24

22:                                               ; preds = %15
  %23 = load atomic i8, ptr %16 seq_cst, align 1
  store i8 %23, ptr %6, align 1
  br label %24

24:                                               ; preds = %22, %20, %18
  %25 = load i8, ptr %6, align 1, !tbaa !62, !range !64, !noundef !65
  %26 = trunc i8 %25 to i1
  call void @llvm.lifetime.end.p0(i64 4, ptr %5) #5
  ret i1 %26
}

; Function Attrs: mustprogress nounwind uwtable
define linkonce_odr noundef zeroext i1 @_ZNKSt6atomicIbE4loadESt12memory_order(ptr noundef nonnull align 1 dereferenceable(1) %0, i32 noundef %1) #2 comdat align 2 {
  %3 = alloca ptr, align 8
  %4 = alloca i32, align 4
  store ptr %0, ptr %3, align 8, !tbaa !66
  store i32 %1, ptr %4, align 4, !tbaa !68
  %5 = load ptr, ptr %3, align 8
  %6 = getelementptr inbounds nuw %"struct.std::atomic", ptr %5, i32 0, i32 0
  %7 = load i32, ptr %4, align 4, !tbaa !68
  %8 = call noundef zeroext i1 @_ZNKSt13__atomic_baseIbE4loadESt12memory_order(ptr noundef nonnull align 1 dereferenceable(1) %6, i32 noundef %7) #5
  ret i1 %8
}

; Function Attrs: mustprogress nounwind uwtable
define linkonce_odr noundef i32 @_ZNSt6atomicIN7rocksdb12ThreadStatus14OperationStageEE8exchangeES2_St12memory_order(ptr noundef nonnull align 4 dereferenceable(4) %0, i32 noundef %1, i32 noundef %2) #2 comdat align 2 {
  %4 = alloca ptr, align 8
  %5 = alloca i32, align 4
  %6 = alloca i32, align 4
  %7 = alloca [4 x i8], align 4
  %8 = alloca ptr, align 8
  store ptr %0, ptr %4, align 8, !tbaa !75
  store i32 %1, ptr %5, align 4, !tbaa !77
  store i32 %2, ptr %6, align 4, !tbaa !68
  %9 = load ptr, ptr %4, align 8
  call void @llvm.lifetime.start.p0(i64 4, ptr %7) #5
  call void @llvm.lifetime.start.p0(i64 8, ptr %8) #5
  %10 = getelementptr inbounds [4 x i8], ptr %7, i64 0, i64 0
  store ptr %10, ptr %8, align 8, !tbaa !21
  %11 = getelementptr inbounds nuw %"struct.std::atomic.6", ptr %9, i32 0, i32 0
  %12 = load i32, ptr %6, align 4, !tbaa !68
  %13 = load ptr, ptr %8, align 8, !tbaa !21
  switch i32 %12, label %14 [
    i32 1, label %17
    i32 2, label %17
    i32 3, label %20
    i32 4, label %23
    i32 5, label %26
  ]

14:                                               ; preds = %3
  %15 = load i32, ptr %5, align 4
  %16 = atomicrmw xchg ptr %11, i32 %15 monotonic, align 4
  store i32 %16, ptr %13, align 4
  br label %29

17:                                               ; preds = %3, %3
  %18 = load i32, ptr %5, align 4
  %19 = atomicrmw xchg ptr %11, i32 %18 acquire, align 4
  store i32 %19, ptr %13, align 4
  br label %29

20:                                               ; preds = %3
  %21 = load i32, ptr %5, align 4
  %22 = atomicrmw xchg ptr %11, i32 %21 release, align 4
  store i32 %22, ptr %13, align 4
  br label %29

23:                                               ; preds = %3
  %24 = load i32, ptr %5, align 4
  %25 = atomicrmw xchg ptr %11, i32 %24 acq_rel, align 4
  store i32 %25, ptr %13, align 4
  br label %29

26:                                               ; preds = %3
  %27 = load i32, ptr %5, align 4
  %28 = atomicrmw xchg ptr %11, i32 %27 seq_cst, align 4
  store i32 %28, ptr %13, align 4
  br label %29

29:                                               ; preds = %26, %23, %20, %17, %14
  %30 = load ptr, ptr %8, align 8, !tbaa !21
  %31 = load i32, ptr %30, align 4, !tbaa !77
  call void @llvm.lifetime.end.p0(i64 8, ptr %8) #5
  call void @llvm.lifetime.end.p0(i64 4, ptr %7) #5
  ret i32 %31
}

; Function Attrs: mustprogress nounwind uwtable
define noundef ptr @_ZN7rocksdb19ThreadStatusUpdater20GetLocalThreadStatusEv(ptr noundef nonnull align 8 dereferenceable(216) %0) #2 align 2 {
  %2 = alloca ptr, align 8
  %3 = alloca ptr, align 8
  store ptr %0, ptr %3, align 8, !tbaa !37
  %4 = call align 8 ptr @llvm.threadlocal.address.p0(ptr align 8 @_ZN7rocksdb19ThreadStatusUpdater19thread_status_data_E)
  %5 = load ptr, ptr %4, align 8, !tbaa !42
  %6 = icmp eq ptr %5, null
  br i1 %6, label %7, label %8

7:                                                ; preds = %1
  store ptr null, ptr %2, align 8
  br label %17

8:                                                ; preds = %1
  %9 = call align 8 ptr @llvm.threadlocal.address.p0(ptr align 8 @_ZN7rocksdb19ThreadStatusUpdater19thread_status_data_E)
  %10 = load ptr, ptr %9, align 8, !tbaa !42
  %11 = getelementptr inbounds nuw %"struct.rocksdb::ThreadStatusData", ptr %10, i32 0, i32 0
  %12 = call noundef zeroext i1 @_ZNKSt6atomicIbE4loadESt12memory_order(ptr noundef nonnull align 1 dereferenceable(1) %11, i32 noundef 0) #5
  br i1 %12, label %14, label %13

13:                                               ; preds = %8
  store ptr null, ptr %2, align 8
  br label %17

14:                                               ; preds = %8
  %15 = call align 8 ptr @llvm.threadlocal.address.p0(ptr align 8 @_ZN7rocksdb19ThreadStatusUpdater19thread_status_data_E)
  %16 = load ptr, ptr %15, align 8, !tbaa !42
  store ptr %16, ptr %2, align 8
  br label %17

17:                                               ; preds = %14, %13, %7
  %18 = load ptr, ptr %2, align 8
  ret ptr %18
}

; Function Attrs: mustprogress uwtable
define noundef i32 @_ZN7rocksdb19ThreadStatusUpdater23SetThreadOperationStageENS_12ThreadStatus14OperationStageE(ptr noundef nonnull align 8 dereferenceable(216) %0, i32 noundef %1) #3 align 2 {
  %3 = alloca i32, align 4
  %4 = alloca ptr, align 8
  %5 = alloca i32, align 4
  %6 = alloca ptr, align 8
  %7 = alloca i32, align 4
  store ptr %0, ptr %4, align 8, !tbaa !37
  store i32 %1, ptr %5, align 4, !tbaa !77
  %8 = load ptr, ptr %4, align 8
  call void @llvm.lifetime.start.p0(i64 8, ptr %6) #5
  %9 = call noundef ptr @_ZN7rocksdb19ThreadStatusUpdater20GetLocalThreadStatusEv(ptr noundef nonnull align 8 dereferenceable(216) %8)
  store ptr %9, ptr %6, align 8, !tbaa !42
  %10 = load ptr, ptr %6, align 8, !tbaa !42
  %11 = icmp eq ptr %10, null
  br i1 %11, label %12, label %13

12:                                               ; preds = %2
  store i32 0, ptr %3, align 4
  store i32 1, ptr %7, align 4
  br label %18

13:                                               ; preds = %2
  %14 = load ptr, ptr %6, align 8, !tbaa !42
  %15 = getelementptr inbounds nuw %"struct.rocksdb::ThreadStatusData", ptr %14, i32 0, i32 9
  %16 = load i32, ptr %5, align 4, !tbaa !77
  %17 = call noundef i32 @_ZNSt6atomicIN7rocksdb12ThreadStatus14OperationStageEE8exchangeES2_St12memory_order(ptr noundef nonnull align 4 dereferenceable(4) %15, i32 noundef %16, i32 noundef 0) #5
  store i32 %17, ptr %3, align 4
  store i32 1, ptr %7, align 4
  br label %18

18:                                               ; preds = %13, %12
  call void @llvm.lifetime.end.p0(i64 8, ptr %6) #5
  %19 = load i32, ptr %3, align 4
  ret i32 %19
}